target datalayout = "e-m:e-p270:32:32-p271:32:32-p272:64:64-i64:64-i128:128-f80:128-n8:16:32:64-S128"
target triple = "x86_64-unknown-linux-gnu"

%"class.cvc5::internal::theory::quantifiers::ieval::InstEvaluatorManager" = type { %"class.cvc5::internal::theory::QuantifiersUtil", ptr, ptr, %"class.std::map" }
%"class.cvc5::internal::theory::QuantifiersUtil" = type { %"class.cvc5::internal::EnvObj" }
%"class.cvc5::internal::EnvObj" = type { ptr, ptr }
%"class.std::map" = type { %"class.std::_Rb_tree" }
%"class.std::_Rb_tree" = type { %"struct.std::_Rb_tree<std::pair<cvc5::internal::NodeTemplate<true>, cvc5::internal::theory::quantifiers::ieval::TermEvaluatorMode>, std::pair<const std::pair<cvc5::internal::NodeTemplate<true>, cvc5::internal::theory::quantifiers::ieval::TermEvaluatorMode>, std::unique_ptr<cvc5::internal::theory::quantifiers::ieval::InstEvaluator>>, std::_Select1st<std::pair<const std::pair<cvc5::internal::NodeTemplate<true>, cvc5::internal::theory::quantifiers::ieval::TermEvaluatorMode>, std::unique_ptr<cvc5::internal::theory::quantifiers::ieval::InstEvaluator>>>, std::less<std::pair<cvc5::internal::NodeTemplate<true>, cvc5::internal::theory::quantifiers::ieval::TermEvaluatorMode>>>::_Rb_tree_impl" }
%"struct.std::_Rb_tree<std::pair<cvc5::internal::NodeTemplate<true>, cvc5::internal::theory::quantifiers::ieval::TermEvaluatorMode>, std::pair<const std::pair<cvc5::internal::NodeTemplate<true>, cvc5::internal::theory::quantifiers::ieval::TermEvaluatorMode>, std::unique_ptr<cvc5::internal::theory::quantifiers::ieval::InstEvaluator>>, std::_Select1st<std::pair<const std::pair<cvc5::internal::NodeTemplate<true>, cvc5::internal::theory::quantifiers::ieval::TermEvaluatorMode>, std::unique_ptr<cvc5::internal::theory::quantifiers::ieval::InstEvaluator>>>, std::less<std::pair<cvc5::internal::NodeTemplate<true>, cvc5::internal::theory::quantifiers::ieval::TermEvaluatorMode>>>::_Rb_tree_impl" = type { %"struct.std::_Rb_tree_key_compare", %"struct.std::_Rb_tree_header" }
%"struct.std::_Rb_tree_key_compare" = type { %"struct.std::less" }
%"struct.std::less" = type { i8 }
%"struct.std::_Rb_tree_header" = type { %"struct.std::_Rb_tree_node_base", i64 }
%"struct.std::_Rb_tree_node_base" = type { i32, ptr, ptr, ptr }

; Function Attrs: noreturn nounwind uwtable
define linkonce_odr hidden void @__clang_call_terminate(ptr noundef %0) #8 comdat {
  %2 = call ptr @__cxa_begin_catch(ptr %0) #3
  call void @_ZSt9terminatev() #17
  unreachable
}

; Function Attrs: mustprogress nounwind uwtable
define linkonce_odr hidden void @_ZNSt15_Rb_tree_header8_M_resetEv(ptr noundef nonnull align 8 dereferenceable(40) %this) #5 comdat align 2 {
entry:
  %this.addr = alloca ptr, align 8
  store ptr %this, ptr %this.addr, align 8
  %this1 = load ptr, ptr %this.addr, align 8
  %_M_header = getelementptr inbounds %"struct.std::_Rb_tree_header", ptr %this1, i32 0, i32 0
  %_M_parent = getelementptr inbounds %"struct.std::_Rb_tree_node_base", ptr %_M_header, i32 0, i32 1
  store ptr null, ptr %_M_parent, align 8
  %_M_header2 = getelementptr inbounds %"struct.std::_Rb_tree_header", ptr %this1, i32 0, i32 0
  %_M_header3 = getelementptr inbounds %"struct.std::_Rb_tree_header", ptr %this1, i32 0, i32 0
  %_M_left = getelementptr inbounds %"struct.std::_Rb_tree_node_base", ptr %_M_header3, i32 0, i32 2
  store ptr %_M_header2, ptr %_M_left, align 8
  %_M_header4 = getelementptr inbounds %"struct.std::_Rb_tree_header", ptr %this1, i32 0, i32 0
  %_M_header5 = getelementptr inbounds %"struct.std::_Rb_tree_header", ptr %this1, i32 0, i32 0
  %_M_right = getelementptr inbounds %"struct.std::_Rb_tree_node_base", ptr %_M_header5, i32 0, i32 3
  store ptr %_M_header4, ptr %_M_right, align 8
  %_M_node_count = getelementptr inbounds %"struct.std::_Rb_tree_header", ptr %this1, i32 0, i32 1
  store i64 0, ptr %_M_node_count, align 8
  ret void
}

; Function Attrs: mustprogress nounwind uwtable
define linkonce_odr hidden void @_ZNSt15__new_allocatorISt13_Rb_tree_nodeISt4pairIKS1_IN4cvc58internal12NodeTemplateILb1EEENS3_6theory11quantifiers5ieval17TermEvaluatorModeEESt10unique_ptrINS8_13InstEvaluatorESt14default_deleteISD_EEEEEC2Ev(ptr noundef nonnull align 1 dereferenceable(1) %this) unnamed_addr #5 comdat align 2 {
entry:
  %this.addr = alloca ptr, align 8
  store ptr %this, ptr %this.addr, align 8
  ret void
}

; Function Attrs: mustprogress nounwind uwtable
define linkonce_odr hidden void @_ZNSt15_Rb_tree_headerC2Ev(ptr noundef nonnull align 8 dereferenceable(40) %this) unnamed_addr #5 comdat align 2 personality ptr @__gxx_personality_v0 {
entry:
  %this.addr = alloca ptr, align 8
  store ptr %this, ptr %this.addr, align 8
  %this1 = load ptr, ptr %this.addr, align 8
  %_M_header2 = getelementptr inbounds %"struct.std::_Rb_tree_header", ptr %this1, i32 0, i32 0
  %_M_color = getelementptr inbounds %"struct.std::_Rb_tree_node_base", ptr %_M_header2, i32 0, i32 0
  store i32 0, ptr %_M_color, align 8
  invoke void @_ZNSt15_Rb_tree_header8_M_resetEv(ptr noundef nonnull align 8 dereferenceable(40) %this1)
          to label %invoke.cont unwind label %terminate.lpad

invoke.cont:                                      ; preds = %entry
  ret void

terminate.lpad:                                   ; preds = %entry
  %0 = landingpad { ptr, i32 }
          catch ptr null
  %1 = extractvalue { ptr, i32 } %0, 0
  call void @__clang_call_terminate(ptr %1) #17
  unreachable
}

; Function Attrs: mustprogress nounwind uwtable
define linkonce_odr hidden void @_ZNSt20_Rb_tree_key_compareISt4lessISt4pairIN4cvc58internal12NodeTemplateILb1EEENS3_6theory11quantifiers5ieval17TermEvaluatorModeEEEEC2Ev(ptr noundef nonnull align 1 dereferenceable(1) %this) unnamed_addr #5 comdat align 2 {
entry:
  %this.addr = alloca ptr, align 8
  store ptr %this, ptr %this.addr, align 8
  ret void
}

; Function Attrs: mustprogress nounwind uwtable
define linkonce_odr hidden void @_ZNSaISt13_Rb_tree_nodeISt4pairIKS0_IN4cvc58internal12NodeTemplateILb1EEENS2_6theory11quantifiers5ieval17TermEvaluatorModeEESt10unique_ptrINS7_13InstEvaluatorESt14default_deleteISC_EEEEEC2Ev(ptr noundef nonnull align 1 dereferenceable(1) %this) unnamed_addr #5 comdat align 2 {
entry:
  %this.addr = alloca ptr, align 8
  store ptr %this, ptr %this.addr, align 8
  %this1 = load ptr, ptr %this.addr, align 8
  call void @_ZNSt15__new_allocatorISt13_Rb_tree_nodeISt4pairIKS1_IN4cvc58internal12NodeTemplateILb1EEENS3_6theory11quantifiers5ieval17TermEvaluatorModeEESt10unique_ptrINS8_13InstEvaluatorESt14default_deleteISD_EEEEEC2Ev(ptr noundef nonnull align 1 dereferenceable(1) %this1) #3
  ret void
}

; Function Attrs: mustprogress nounwind uwtable
define linkonce_odr hidden void @_ZNSt8_Rb_treeISt4pairIN4cvc58internal12NodeTemplateILb1EEENS2_6theory11quantifiers5ieval17TermEvaluatorModeEES0_IKS9_St10unique_ptrINS7_13InstEvaluatorESt14default_deleteISC_EEESt10_Select1stISG_ESt4lessIS9_ESaISG_EE13_Rb_tree_implISK_Lb1EEC2Ev(ptr noundef nonnull align 8 dereferenceable(48) %this) unnamed_addr #5 comdat align 2 {
entry:
  %this.addr = alloca ptr, align 8
  store ptr %this, ptr %this.addr, align 8
  %this1 = load ptr, ptr %this.addr, align 8
  call void @_ZNSaISt13_Rb_tree_nodeISt4pairIKS0_IN4cvc58internal12NodeTemplateILb1EEENS2_6theory11quantifiers5ieval17TermEvaluatorModeEESt10unique_ptrINS7_13InstEvaluatorESt14default_deleteISC_EEEEEC2Ev(ptr noundef nonnull align 1 dereferenceable(1) %this1) #3
  call void @_ZNSt20_Rb_tree_key_compareISt4lessISt4pairIN4cvc58internal12NodeTemplateILb1EEENS3_6theory11quantifiers5ieval17TermEvaluatorModeEEEEC2Ev(ptr noundef nonnull align 1 dereferenceable(1) %this1) #3
  %0 = getelementptr inbounds i8, ptr %this1, i64 8
  call void @_ZNSt15_Rb_tree_headerC2Ev(ptr noundef nonnull align 8 dereferenceable(40) %0) #3
  ret void
}

; Function Attrs: mustprogress nounwind uwtable
define linkonce_odr hidden void @_ZNSt8_Rb_treeISt4pairIN4cvc58internal12NodeTemplateILb1EEENS2_6theory11quantifiers5ieval17TermEvaluatorModeEES0_IKS9_St10unique_ptrINS7_13InstEvaluatorESt14default_deleteISC_EEESt10_Select1stISG_ESt4lessIS9_ESaISG_EEC2Ev(ptr noundef nonnull align 8 dereferenceable(48) %this) unnamed_addr #5 comdat align 2 {
entry:
  %this.addr = alloca ptr, align 8
  store ptr %this, ptr %this.addr, align 8
  %this1 = load ptr, ptr %this.addr, align 8
  %_M_impl = getelementptr inbounds %"class.std::_Rb_tree", ptr %this1, i32 0, i32 0
  call void @_ZNSt8_Rb_treeISt4pairIN4cvc58internal12NodeTemplateILb1EEENS2_6theory11quantifiers5ieval17TermEvaluatorModeEES0_IKS9_St10unique_ptrINS7_13InstEvaluatorESt14default_deleteISC_EEESt10_Select1stISG_ESt4lessIS9_ESaISG_EE13_Rb_tree_implISK_Lb1EEC2Ev(ptr noundef nonnull align 8 dereferenceable(48) %_M_impl) #3
  ret void
}

; Function Attrs: mustprogress nounwind uwtable
define linkonce_odr hidden void @_ZNSt3mapISt4pairIN4cvc58internal12NodeTemplateILb1EEENS2_6theory11quantifiers5ieval17TermEvaluatorModeEESt10unique_ptrINS7_13InstEvaluatorESt14default_deleteISB_EESt4lessIS9_ESaIS0_IKS9_SE_EEEC2Ev(ptr noundef nonnull align 8 dereferenceable(48) %this) unnamed_addr #5 comdat align 2 {
entry:
  %this.addr = alloca ptr, align 8
  store ptr %this, ptr %this.addr, align 8
  %this1 = load ptr, ptr %this.addr, align 8
  %_M_t = getelementptr inbounds %"class.std::map", ptr %this1, i32 0, i32 0
  call void @_ZNSt8_Rb_treeISt4pairIN4cvc58internal12NodeTemplateILb1EEENS2_6theory11quantifiers5ieval17TermEvaluatorModeEES0_IKS9_St10unique_ptrINS7_13InstEvaluatorESt14default_deleteISC_EEESt10_Select1stISG_ESt4lessIS9_ESaISG_EEC2Ev(ptr noundef nonnull align 8 dereferenceable(48) %_M_t) #3
  ret void
}

; Function Attrs: mustprogress uwtable
define hidden void @_ZN4cvc58internal6theory11quantifiers5ieval20InstEvaluatorManagerC2ERNS0_3EnvERNS2_16QuantifiersStateERNS2_6TermDbE(ptr noundef nonnull align 8 dereferenceable(80) %this, ptr noundef nonnull align 8 dereferenceable(576) %env, ptr noundef nonnull align 1 %qs, ptr noundef nonnull align 1 %tdb) unnamed_addr #4 align 2 {
entry:
  %this.addr = alloca ptr, align 8
  %env.addr = alloca ptr, align 8
  %qs.addr = alloca ptr, align 8
  %tdb.addr = alloca ptr, align 8
  store ptr %this, ptr %this.addr, align 8
  store ptr %env, ptr %env.addr, align 8
  store ptr %qs, ptr %qs.addr, align 8
  store ptr %tdb, ptr %tdb.addr, align 8
  %this1 = load ptr, ptr %this.addr, align 8
  %0 = load ptr, ptr %env.addr, align 8
  call void @_ZN4cvc58internal6theory15QuantifiersUtilC2ERNS0_3EnvE(ptr noundef nonnull align 8 dereferenceable(16) %this1, ptr noundef nonnull align 8 dereferenceable(576) %0)
  store ptr getelementptr inbounds ({ [9 x ptr] }, ptr @_ZTVN4cvc58internal6theory11quantifiers5ieval20InstEvaluatorManagerE, i32 0, i32 0, i32 2), ptr %this1, align 8
  %d_qstate = getelementptr inbounds %"class.cvc5::internal::theory::quantifiers::ieval::InstEvaluatorManager", ptr %this1, i32 0, i32 1
  %1 = load ptr, ptr %qs.addr, align 8
  store ptr %1, ptr %d_qstate, align 8
  %d_tdb = getelementptr inbounds %"class.cvc5::internal::theory::quantifiers::ieval::InstEvaluatorManager", ptr %this1, i32 0, i32 2
  %2 = load ptr, ptr %tdb.addr, align 8
  store ptr %2, ptr %d_tdb, align 8
  %d_evals = getelementptr inbounds %"class.cvc5::internal::theory::quantifiers::ieval::InstEvaluatorManager", ptr %this1, i32 0, i32 3
  call void @_ZNSt3mapISt4pairIN4cvc58internal12NodeTemplateILb1EEENS2_6theory11quantifiers5ieval17TermEvaluatorModeEESt10unique_ptrINS7_13InstEvaluatorESt14default_deleteISB_EESt4lessIS9_ESaIS0_IKS9_SE_EEEC2Ev(ptr noundef nonnull align 8 dereferenceable(48) %d_evals) #3
  ret void
}