; Function Attrs: mustprogress uwtable
define hidden void @_ZN4cvc58internal6theory11quantifiers5ieval20InstEvaluatorManagerC2ERNS0_3EnvERNS2_16QuantifiersStateERNS2_6TermDbE(ptr noundef nonnull align 8 dereferenceable(80) %this, ptr noundef nonnull align 8 dereferenceable(576) %env, ptr noundef nonnull align 1 %qs, ptr noundef nonnull align 1 %tdb) unnamed_addr #3 align 2 personality ptr @__gxx_personality_v0 {
entry:
  tail call void @_ZN4cvc58internal6theory15QuantifiersUtilC2ERNS0_3EnvE(ptr noundef nonnull align 8 dereferenceable(16) %this, ptr noundef nonnull align 8 dereferenceable(576) %env)
  store ptr getelementptr inbounds ({ [9 x ptr] }, ptr @_ZTVN4cvc58internal6theory11quantifiers5ieval20InstEvaluatorManagerE, i64 0, i32 0, i64 2), ptr %this, align 8
  %d_qstate = getelementptr inbounds i8, ptr %this, i64 16
  store ptr %qs, ptr %d_qstate, align 8
  %d_tdb = getelementptr inbounds i8, ptr %this, i64 24
  store ptr %tdb, ptr %d_tdb, align 8
  %0 = getelementptr inbounds i8, ptr %this, i64 40
  store i32 0, ptr %0, align 8
  %_M_parent.i.i.i.i.i = getelementptr inbounds i8, ptr %this, i64 48
  store ptr null, ptr %_M_parent.i.i.i.i.i, align 8
  %_M_left.i.i.i.i.i = getelementptr inbounds i8, ptr %this, i64 56
  store ptr %0, ptr %_M_left.i.i.i.i.i, align 8
  %_M_right.i.i.i.i.i = getelementptr inbounds i8, ptr %this, i64 64
  store ptr %0, ptr %_M_right.i.i.i.i.i, align 8
  %_M_node_count.i.i.i.i.i = getelementptr inbounds i8, ptr %this, i64 72
  store i64 0, ptr %_M_node_count.i.i.i.i.i, align 8
  ret void
}